Certificate:
    Data:
        Version: 3 (0x2)
        Serial Number: 1 (0x1)
    Signature Algorithm: sha1WithRSAEncryption
        Issuer: C=US, ST=Unset, L=Unset, O=Unset, CN=www.example.com
        Validity
            Not Before: Nov 15 06:53:58 2013 GMT
            Not After : Nov 13 06:53:58 2023 GMT
        Subject: C=US, ST=Unset, O=Unset, CN=www.example.com
        Subject Public Key Info:
            Public Key Algorithm: rsaEncryption
                Public-Key: (1024 bit)
                Modulus:
                    00:d7:3d:51:e0:91:7b:35:39:1e:55:c4:55:2e:47:
                    d9:31:92:a8:11:c7:7e:8d:8a:9a:46:7d:5a:d0:4a:
                    e1:0c:fd:db:a8:9a:9d:8a:47:0b:27:31:23:cf:9f:
                    cd:d2:58:dc:7a:c7:ec:31:96:2f:63:b0:05:05:57:
                    12:dc:e0:6f:9b:ee:e2:7a:77:5f:b7:79:bb:3e:50:
                    c0:89:d5:86:b6:43:44:d9:5b:6b:48:36:6d:af:4a:
                    b4:00:b0:2b:52:01:e3:bf:73:d9:e7:fd:1d:fd:58:
                    fb:e5:b0:8a:15:90:57:fa:0e:4a:7a:1d:65:d1:68:
                    ed:63:fc:d7:c9:03:43:d1:0d
                Exponent: 65537 (0x10001)
        X509v3 extensions:
            X509v3 Basic Constraints: 
                CA:FALSE
            X509v3 Subject Key Identifier: 
                65:78:57:03:09:A6:44:EB:ED:CB:A8:46:E0:5A:72:FD:04:90:92:D5
            X509v3 Authority Key Identifier: 
                keyid:A3:7A:8D:42:AC:AE:92:1C:AB:C4:4B:C7:3C:92:0E:43:E4:C6:DB:98

    Signature Algorithm: sha1WithRSAEncryption
         4a:e7:ae:2e:81:24:f4:8a:c9:1d:66:96:52:f1:ae:2d:36:b5:
         fb:3b:ae:13:fc:39:f7:58:b4:9b:d8:14:ab:0b:cf:5c:27:51:
         37:d6:ce:c5:77:48:d0:b8:ad:5c:e8:f2:3d:fe:b2:65:27:a7:
         62:d9:88:43:f7:bc:3f:70:f1:a0:6c:56:61:4d:6f:8e:06:f0:
         74:81:45:d0:fc:4e:3e:f4:c6:47:e3:b6:1c:0e:fe:c7:06:d6:
         ae:e0:e3:78:1e:c6:58:eb:9e:b2:11:83:b1:b0:64:a3:6c:51:
         05:88:d5:91:11:e9:b7:18:9f:12:ab:6f:74:15:e2:7c:f1:db:
         63:c6
-----BEGIN CERTIFICATE-----
MIICYTCCAcqgAwIBAgIBATANBgkqhkiG9w0BAQUFADBXMQswCQYDVQQGEwJVUzEO
MAwGA1UECAwFVW5zZXQxDjAMBgNVBAcMBVVuc2V0MQ4wDAYDVQQKDAVVbnNldDEY
MBYGA1UEAwwPd3d3LmV4YW1wbGUuY29tMB4XDTEzMTExNTA2NTM1OFoXDTIzMTEx
MzA2NTM1OFowRzELMAkGA1UEBhMCVVMxDjAMBgNVBAgMBVVuc2V0MQ4wDAYDVQQK
DAVVbnNldDEYMBYGA1UEAwwPd3d3LmV4YW1wbGUuY29tMIGfMA0GCSqGSIb3DQEB
AQUAA4GNADCBiQKBgQDXPVHgkXs1OR5VxFUuR9kxkqgRx36NippGfVrQSuEM/duo
mp2KRwsnMSPPn83SWNx6x+wxli9jsAUFVxLc4G+b7uJ6d1+3ebs+UMCJ1Ya2Q0TZ
W2tINm2vSrQAsCtSAeO/c9nn/R39WPvlsIoVkFf6Dkp6HWXRaO1j/NfJA0PRDQID
AQABo00wSzAJBgNVHRMEAjAAMB0GA1UdDgQWBBRleFcDCaZE6+3LqEbgWnL9BJCS
1TAfBgNVHSMEGDAWgBSjeo1CrK6SHKvES8c8kg5D5MbbmDANBgkqhkiG9w0BAQUF
AAOBgQBK564ugST0iskdZpZS8a4tNrX7O64T/Dn3WLSb2BSrC89cJ1E31s7Fd0jQ
uK1c6PI9/rJlJ6di2YhD97w/cPGgbFZhTW+OBvB0gUXQ/E4+9MZH47YcDv7HBtau
4ON4HsZY656yEYOxsGSjbFEFiNWREem3GJ8Sq290FeJ88dtjxg==
-----END CERTIFICATE-----
